target datalayout = "e-m:e-p270:32:32-p271:32:32-p272:64:64-i64:64-i128:128-f80:128-n8:16:32:64-S128"
target triple = "x86_64-pc-linux-gnu"

%struct._cmsStage_struct = type { ptr, i32, i32, i32, i32, ptr, ptr, ptr, ptr, ptr }

; Function Attrs: nounwind uwtable
define hidden ptr @_cmsStageAllocPlaceholder(ptr noundef %0, i32 noundef %1, i32 noundef %2, i32 noundef %3, ptr noundef %4, ptr noundef %5, ptr noundef %6, ptr noundef %7) #0 {
  %9 = alloca ptr, align 8
  %10 = alloca ptr, align 8
  %11 = alloca i32, align 4
  %12 = alloca i32, align 4
  %13 = alloca i32, align 4
  %14 = alloca ptr, align 8
  %15 = alloca ptr, align 8
  %16 = alloca ptr, align 8
  %17 = alloca ptr, align 8
  %18 = alloca ptr, align 8
  store ptr %0, ptr %10, align 8
  store i32 %1, ptr %11, align 4
  store i32 %2, ptr %12, align 4
  store i32 %3, ptr %13, align 4
  store ptr %4, ptr %14, align 8
  store ptr %5, ptr %15, align 8
  store ptr %6, ptr %16, align 8
  store ptr %7, ptr %17, align 8
  %19 = load ptr, ptr %10, align 8
  %20 = call ptr @_cmsMallocZero(ptr noundef %19, i32 noundef 64)
  store ptr %20, ptr %18, align 8
  %21 = load ptr, ptr %18, align 8
  %22 = icmp eq ptr %21, null
  br i1 %22, label %23, label %24

23:                                               ; preds = %8
  store ptr null, ptr %9, align 8
  br label %53

24:                                               ; preds = %8
  %25 = load ptr, ptr %10, align 8
  %26 = load ptr, ptr %18, align 8
  %27 = getelementptr inbounds %struct._cmsStage_struct, ptr %26, i32 0, i32 0
  store ptr %25, ptr %27, align 8
  %28 = load i32, ptr %11, align 4
  %29 = load ptr, ptr %18, align 8
  %30 = getelementptr inbounds %struct._cmsStage_struct, ptr %29, i32 0, i32 1
  store i32 %28, ptr %30, align 8
  %31 = load i32, ptr %11, align 4
  %32 = load ptr, ptr %18, align 8
  %33 = getelementptr inbounds %struct._cmsStage_struct, ptr %32, i32 0, i32 2
  store i32 %31, ptr %33, align 4
  %34 = load i32, ptr %12, align 4
  %35 = load ptr, ptr %18, align 8
  %36 = getelementptr inbounds %struct._cmsStage_struct, ptr %35, i32 0, i32 3
  store i32 %34, ptr %36, align 8
  %37 = load i32, ptr %13, align 4
  %38 = load ptr, ptr %18, align 8
  %39 = getelementptr inbounds %struct._cmsStage_struct, ptr %38, i32 0, i32 4
  store i32 %37, ptr %39, align 4
  %40 = load ptr, ptr %14, align 8
  %41 = load ptr, ptr %18, align 8
  %42 = getelementptr inbounds %struct._cmsStage_struct, ptr %41, i32 0, i32 5
  store ptr %40, ptr %42, align 8
  %43 = load ptr, ptr %15, align 8
  %44 = load ptr, ptr %18, align 8
  %45 = getelementptr inbounds %struct._cmsStage_struct, ptr %44, i32 0, i32 6
  store ptr %43, ptr %45, align 8
  %46 = load ptr, ptr %16, align 8
  %47 = load ptr, ptr %18, align 8
  %48 = getelementptr inbounds %struct._cmsStage_struct, ptr %47, i32 0, i32 7
  store ptr %46, ptr %48, align 8
  %49 = load ptr, ptr %17, align 8
  %50 = load ptr, ptr %18, align 8
  %51 = getelementptr inbounds %struct._cmsStage_struct, ptr %50, i32 0, i32 8
  store ptr %49, ptr %51, align 8
  %52 = load ptr, ptr %18, align 8
  store ptr %52, ptr %9, align 8
  br label %53

53:                                               ; preds = %24, %23
  %54 = load ptr, ptr %9, align 8
  ret ptr %54
}