; Function Attrs: nounwind uwtable
define hidden ptr @_cmsStageAllocPlaceholder(ptr noundef %0, i32 noundef %1, i32 noundef %2, i32 noundef %3, ptr noundef %4, ptr noundef %5, ptr noundef %6, ptr noundef %7) local_unnamed_addr #0 {
  %9 = tail call ptr @_cmsMallocZero(ptr noundef %0, i32 noundef 64) #18
  %10 = icmp eq ptr %9, null
  br i1 %10, label %20, label %11

11:                                               ; preds = %8
  store ptr %0, ptr %9, align 8
  %12 = getelementptr inbounds i8, ptr %9, i64 8
  store i32 %1, ptr %12, align 8
  %13 = getelementptr inbounds i8, ptr %9, i64 12
  store i32 %1, ptr %13, align 4
  %14 = getelementptr inbounds i8, ptr %9, i64 16
  store i32 %2, ptr %14, align 8
  %15 = getelementptr inbounds i8, ptr %9, i64 20
  store i32 %3, ptr %15, align 4
  %16 = getelementptr inbounds i8, ptr %9, i64 24
  store ptr %4, ptr %16, align 8
  %17 = getelementptr inbounds i8, ptr %9, i64 32
  store ptr %5, ptr %17, align 8
  %18 = getelementptr inbounds i8, ptr %9, i64 40
  store ptr %6, ptr %18, align 8
  %19 = getelementptr inbounds i8, ptr %9, i64 48
  store ptr %7, ptr %19, align 8
  br label %20

20:                                               ; preds = %8, %11
  ret ptr %9
}